(lp0
Vhttp://en.wikipedia.org/wiki/Organism
p1
aVhttp://en.wikipedia.org/wiki/Organism#Etymology
p2
aVhttp://en.wikipedia.org/wiki/Organism#Semantics
p3
aVhttp://en.wikipedia.org/wiki/Biology
p4
aVhttp://biology.sfsu.edu/content/bachelor-science-biology-concentration-physiology
p5
aVhttp://www.biology-online.org/dictionary/Physiology
p6
aVhttp://en.wikipedia.org/wiki/Cell_(biology)
p7
aVhttp://en.wikipedia.org/wiki/Cell_(biology)#Anatomy
p8
aVhttp://en.wikipedia.org/wiki/Cell_(biology)#Subcellular_components
p9
aVhttp://en.wikipedia.org/wiki/Biology
p10
aVhttps://en.wikipedia.org/wiki/Cell_biology
p11
aVhttp://en.wikipedia.org/wiki/Human_biology
p12
aVhttp://en.wikipedia.org/wiki/Evolutionary_biology
p13
aVhttp://en.wikipedia.org/wiki/Evolutionary_biology#Subfields
p14
aVhttp://en.wikipedia.org/wiki/Evolutionary_biology#History
p15
aVhttp://en.wikipedia.org/wiki/Category:Biological_nomenclature
p16
aVhttp://bio.slu.edu/mayden/systematics/bsc420520lect2.html
p17
aVhttp://www.thefreedictionary.com/Biological+nomenclature
p18
aVhttp://www.nsf.gov/news/overviews/biology/
p19
aVhttp://www.scienceworldreport.com/articles/6632/20130503/synthetic-biology-research-growing-strongly-map-shows-global-hotspots-activity.htm
p20
aVhttp://www.crainscleveland.com/article/20130502/FREE/130509933
p21
aVhttp://evolution.berkeley.edu/evosite/evo101/VA1BioSpeciesConcept.shtml
p22
aVhttp://esciencenews.com/articles/2013/05/03/george.washington.university.biologist.discovers.new.dinosaur.china
p23
aVhttp://www.biology-online.org/dictionary/Species
p24
aVhttp://biology.about.com/od/evolution/a/aa110207a.htm
p25
aVhttp://www.talkorigins.org/faqs/faq-intro-to-biology.html
p26
aVhttp://en.wikipedia.org/wiki/Evolutionary_biology
p27
aVhttp://www.plantsci.cam.ac.uk/teaching/poo/
p28
aVhttp://www.thefreedictionary.com/physiology
p29
aVhttps://en.wikipedia.org/wiki/Physiology
p30
aVhttp://en.wikipedia.org/wiki/Cell_(biology)
p31
aVhttp://en.wikipedia.org/wiki/Cell_(biology)#Anatomy
p32
aVhttp://en.wikipedia.org/wiki/Cell_(biology)#Subcellular_components
p33
aVhttp://en.wikipedia.org/wiki/Organism
p34
aVhttp://www.biology-online.org/dictionary/Organism
p35
aVhttp://www.wormclassroom.org/teaching-model-organisms
p36
aVhttp://biology.about.com/od/evolution/a/aa110207a.htm
p37
aVhttps://en.wikipedia.org/wiki/Evolution_of_biological_complexity
p38
aVhttp://www.pbs.org/wgbh/evolution/library/faq/cat01.html
p39
aVhttp://thedragonflywoman.com/scientific-names/scientific-nomenclature/
p40
aVhttp://en.wikipedia.org/wiki/Biological_classification
p41
aVhttp://www.pensoft.net/journals/zookeys/article/3347/
p42
aVhttp://en.wikipedia.org/wiki/Model_organism
p43
aVhttp://www.nigms.nih.gov/Education/modelorg_factsheet.htm
p44
aVhttp://www.wormclassroom.org/teaching-model-organisms
p45
aVhttp://en.wikipedia.org/wiki/Organism
p46
aVhttp://www.ebi.ac.uk/2can/biology/organisms2.html
p47
aVhttp://en.wikipedia.org/wiki/Model_organism
p48
aVhttps://en.wikipedia.org/wiki/Evolution_of_biological_complexity
p49
aVhttp://en.wikipedia.org/wiki/Digital_organism
p50
aVhttp://en.wikipedia.org/wiki/Organism
p51
aVhttp://www.med.unc.edu/cellbio
p52
aVhttp://biomed.osu.edu/physiology/
p53
aVhttp://www.cellbiology.wustl.edu/
p54
aVhttps://en.wikipedia.org/wiki/Physiology
p55
aVhttp://en.wikipedia.org/wiki/Human_physiology
p56
aVhttp://en.wikipedia.org/wiki/Plant_physiology
p57
aVhttp://en.wikipedia.org/wiki/Evolutionary_physiology
p58
aVhttp://en.wikipedia.org/wiki/Evolutionary_physiology#History
p59
aVhttp://en.wikipedia.org/wiki/Evolutionary_physiology#Emergent_Properties_of_Evolutionary_Physiology
p60
aVhttp://en.wikipedia.org/wiki/Essential_fatty_acid
p61
aVhttp://en.wikipedia.org/wiki/Essential_fatty_acid#Functions
p62
aVhttp://en.wikipedia.org/wiki/Essential_fatty_acid#Nomenclature_and_terminology
p63
aVhttps://www.ibp.ucla.edu/
p64
aVhttp://www.ibp.ucla.edu/undergraduate.php
p65
aVhttps://www.ibp.ucla.edu/faculty.php
p66
aVhttp://www.britannica.com/EBchecked/topic/5263/adaptation
p67
aVhttp://animal.ifas.ufl.edu/programs/molephys/
p68
aVhttp://www.csb.utoronto.ca/undergraduate/programs/animal-physiology
p69
aVhttp://en.wikipedia.org/wiki/Evolutionary_physiology
p70
aVhttp://en.wikipedia.org/wiki/Evolutionary_physiology#History
p71
aVhttp://en.wikipedia.org/wiki/Evolutionary_physiology#Emergent_Properties_of_Evolutionary_Physiology
p72
aVhttps://en.wikipedia.org/wiki/Cell_biology
p73
aVhttps://en.wikipedia.org/wiki/Cell_biology#Processes
p74
aVhttps://en.wikipedia.org/wiki/Cell_biology#Internal_cellular_structures
p75
aVhttp://www.evolutionarycellbiology.org/
p76
aVhttp://www.nature.com/uidfinder/10.1038/ncb2539?referral=true
p77
aVhttp://en.wikipedia.org/wiki/Evolution_of_cells
p78
aVhttp://www.nature.com/stemcells/2009/0906/090625/full/stemcells.2009.90.html
p79
aVhttp://bioinformatics.oxfordjournals.org/content/24/23/2760.full
p80
aVhttp://ec.asm.org/site/misc/journal-ita_nom.xhtml
p81
aVhttp://www.cell-research.com/
p82
aVhttp://www.cell-research.com/authorinfo.htm
p83
aVhttp://www.cell-research.com/contents/contents.htm
p84
aVhttp://en.wikipedia.org/wiki/Cell_(biology)
p85
aVhttp://en.wikipedia.org/wiki/Cell_(biology)#Anatomy
p86
aVhttp://en.wikipedia.org/wiki/Cell_(biology)#Subcellular_components
p87
aVhttp://www.evolutionarycellbiology.org/
p88
aVhttp://www.nature.com/uidfinder/10.1038/ncb2539?referral=true
p89
aVhttp://en.wikipedia.org/wiki/Evolution_of_cells
p90
aVhttp://en.wikipedia.org/wiki/Evolutionary_biology
p91
aVhttp://en.wikipedia.org/wiki/Evolutionary_biology#Subfields
p92
aVhttp://en.wikipedia.org/wiki/Evolutionary_biology#History
p93
aVhttp://en.wikipedia.org/wiki/Nomenclature
p94
aVhttp://bio.slu.edu/mayden/systematics/bsc420520lect2.html
p95
aVhttp://www.environment.gov.au/erin/documentation/pubs/nomenclature.pdf
p96
aVhttp://bscd.uchicago.edu/ribs
p97
aVhttp://www.bbsrc.ac.uk/
p98
aVhttp://www.nsf.gov/news/overviews/biology/
p99
aVhttp://en.wikipedia.org/wiki/Biology
p100
aVhttps://en.wikipedia.org/wiki/Cell_biology
p101
aVhttp://en.wikipedia.org/wiki/Human_biology
p102
aVhttp://en.wikipedia.org/wiki/Evolutionary_biology
p103
aVhttp://en.wikipedia.org/wiki/Evolutionary_biology#Subfields
p104
aVhttp://en.wikipedia.org/wiki/Evolutionary_biology#History
p105
aVhttp://www.bio200.buffalo.edu/labs/nomenclature.html
p106
aVhttp://en.wikipedia.org/wiki/Biological_classification
p107
aVhttp://biology.about.com/od/evolution/a/aa092304a.htm
p108
aVhttp://en.wikipedia.org/wiki/Evolutionary_biology
p109
aVhttp://www.sciencedaily.com/news/plants_animals/evolution/
p110
aVhttp://onlinelibrary.wiley.com/journal/10.1111/(ISSN)1420-9101
p111
aVhttp://evolution.berkeley.edu/evosite/evo101/VA1BioSpeciesConcept.shtml
p112
aVhttp://en.wikipedia.org/wiki/Evolutionary_biology
p113
aVhttp://en.wikipedia.org/wiki/Evolution
p114
aVhttp://en.wikipedia.org/wiki/Evolutionary_biology
p115
aVhttp://en.wikipedia.org/wiki/Evolutionary_biology#Subfields
p116
aVhttp://en.wikipedia.org/wiki/Evolutionary_biology#History
p117
aVhttp://www.plosbiology.org/static/guidelines.action
p118
aVhttp://en.wikipedia.org/wiki/Nomenclature
p119
aVhttp://rgd.mcw.edu/wg/home/the-introduction-to-biomedical-nomenclature-video-series/the-introduction-to-biomedical-nomenclature-video-series
p120
aVhttp://en.wikipedia.org/wiki/Binomial_nomenclature
p121
aVhttp://en.wikipedia.org/wiki/Binomial_nomenclature#History
p122
aVhttp://en.wikipedia.org/wiki/Binomial_nomenclature#Value
p123
aVhttp://www.bio200.buffalo.edu/labs/nomenclature.html
p124
aVhttp://en.wikipedia.org/wiki/Biological_classification
p125
aVhttp://vertebrates.si.edu/herps/herps_pdfs/deQueiroz_pdfs/1994deQ_GauTREE.pdf
p126
aVhttp://en.wikipedia.org/wiki/Biology
p127
aVhttp://www.nuffieldbioethics.org/sites/default/files/files/Animals%20Chapter%205%20The%20Use%20of%20Animals%20in%20Basic%20Biological%20Research.pdf
p128
aVhttp://www.biology-online.org/dictionary/Species
p129
aVhttp://en.wikipedia.org/wiki/Evolutionary_biology
p130
aVhttp://www.sciencedaily.com/news/plants_animals/evolution/
p131
aVhttp://imprs.evolbio.mpg.de/
p132
aVhttp://evolution.berkeley.edu/evosite/evo101/VA1BioSpeciesConcept.shtml
p133
aVhttp://en.wikipedia.org/wiki/Evolutionary_biology
p134
aVhttp://en.wikipedia.org/wiki/Species
p135
a.