(dp0
Vhttp://en.wikipedia.org/wiki/Atlas_(topology)#Charts
p1
S'Atlas (topology) - Wikipedia, the free encyclopedia'
p2
sVhttp://math.stackexchange.com/questions/93928/is-0-1-an-oriented-manifold-with-boundary-and-stokes-theorem
p3
S'calculus - Is $[0,1]$ an *oriented* manifold with boundary? (and Stokes theorem) - Mathematics Stack Exchange'
p4
sVhttp://www.map.mpim-bonn.mpg.de/Manifold_Atlas:Bibliography
p5
S'Manifold Atlas:Bibliography - Manifold Atlas'
p6
sVhttp://www.springer.com/cda/content/document/cda_downloaddocument/9781441973993-c1.pdf?SGWID=0-0-45-998650-p174028999
p7
g7
sVhttp://www-stat.stanford.edu/~donoho/Reports/2002/WhenIsometry.pdf
p8
g8
sVhttp://www.math.washington.edu/~lee/Books/Smooth/c01.pdf
p9
g9
sVhttp://mathworld.wolfram.com/Manifold.html
p10
S'Manifold -- from Wolfram MathWorld'
p11
sVhttp://en.wikipedia.org/wiki/Differential_structure
p12
S'Differential structure - Wikipedia, the free encyclopedia'
p13
sVhttp://en.wikipedia.org/wiki/Differential_topology#Differential_topology_versus_differential_geometry
p14
S'Differential topology - Wikipedia, the free encyclopedia'
p15
sVhttp://en.wikipedia.org/wiki/Differential_topology#Description
p16
S'Differential topology - Wikipedia, the free encyclopedia'
p17
sVhttp://en.wikipedia.org/wiki/Differentiable_manifold
p18
S'Differentiable manifold - Wikipedia, the free encyclopedia'
p19
sVhttp://preposterousuniverse.com/grnotes/grnotes-two.pdf
p20
g20
sVhttp://en.wikipedia.org/wiki/Manifold_(disambiguation)
p21
S'Manifold (disambiguation) - Wikipedia, the free encyclopedia'
p22
sVhttp://link.springer.com/article/10.1007%2FBF01389196
p23
S'Convex functions on complete noncompact manifolds: Topological structure - Springer'
p24
sVhttp://en.wikipedia.org/wiki/Riemannian_manifold
p25
S'Riemannian manifold - Wikipedia, the free encyclopedia'
p26
sVhttp://en.wikipedia.org/wiki/Atlas_(topology)#Formal_definition_of_atlas
p27
S'Atlas (topology) - Wikipedia, the free encyclopedia'
p28
sVhttp://www.jstor.org/stable/1969770
p29
S'JSTOR: An Error Occurred Setting Your User Cookie'
p30
sVhttp://en.wiktionary.org/wiki/manifold
p31
S'manifold - Wiktionary'
p32
sVhttp://hal.archives-ouvertes.fr/docs/00/47/38/92/PDF/morse4.pdf
p33
g33
sVhttp://en.wikipedia.org/wiki/Topological_manifold
p34
S'Topological manifold - Wikipedia, the free encyclopedia'
p35
sVhttp://www.map.mpim-bonn.mpg.de/Manifold_Atlas:Create_a_new_restricted-editing_page
p36
S'Manifold Atlas: Create a new restricted-editing page - Manifold Atlas'
p37
sVhttp://en.wikipedia.org/wiki/Topological_manifold#Formal_definition
p38
S'Topological manifold - Wikipedia, the free encyclopedia'
p39
sVhttp://en.wikipedia.org/wiki/Stiefel_manifold
p40
S'Stiefel manifold - Wikipedia, the free encyclopedia'
p41
sVhttp://wolfweb.unr.edu/homepage/jabuka/Classes/2006_spring/topology/Notes/09%20-%20Manifolds%20with%20boundary.pdf
p42
g42
sVhttp://books.nips.cc/papers/files/nips15/AA61.pdf
p43
g43
sVhttp://www.thefreedictionary.com/manifold
p44
S'manifold - definition of manifold by the Free Online Dictionary, Thesaurus and Encyclopedia.'
p45
sVhttp://en.wikipedia.org/wiki/Manifold
p46
S'Manifold - Wikipedia, the free encyclopedia'
p47
sVhttp://www.math.nus.edu.sg/~matwujie/Spring04/lecturenotes.pdf
p48
g48
sVhttp://en.wikipedia.org/wiki/Stiefel_manifold#As_a_homogeneous_space
p49
S'Stiefel manifold - Wikipedia, the free encyclopedia'
p50
sVhttp://arxiv.org/abs/1302.5940
p51
g51
sVhttp://en.wikipedia.org/wiki/Topological_manifold#Examples
p52
S'Topological manifold - Wikipedia, the free encyclopedia'
p53
sVhttp://en.wikipedia.org/wiki/Differentiable_manifold#Definition
p54
S'Differentiable manifold - Wikipedia, the free encyclopedia'
p55
sVhttp://en.wikipedia.org/wiki/Closed_manifold
p56
S'Closed manifold - Wikipedia, the free encyclopedia'
p57
sVhttp://www.map.mpim-bonn.mpg.de/
p58
S'Manifold Atlas'
p59
sVhttp://www.map.mpim-bonn.mpg.de/Manifold_Atlas:Create_a_new_open-editing_page
p60
S'Manifold Atlas: Create a new open-editing page - Manifold Atlas'
p61
sVhttp://www.map.mpim-bonn.mpg.de/Orientation_of_manifolds
p62
S'Orientation of manifolds - Manifold Atlas'
p63
sVhttp://en.wikipedia.org/wiki/Nash_functions
p64
S'Nash functions - Wikipedia, the free encyclopedia'
p65
sVhttp://math.uchicago.edu/~wilsonj/WOMPtalk-Manifolds.pdf
p66
g66
sVhttp://www.jstor.org/stable/1970318
p67
S'JSTOR: An Error Occurred Setting Your User Cookie'
p68
sVhttp://en.wikipedia.org/wiki/Differentiable_manifold#History
p69
S'Differentiable manifold - Wikipedia, the free encyclopedia'
p70
sVhttp://www.map.mpim-bonn.mpg.de/1-manifolds
p71
S'1-manifolds - Manifold Atlas'
p72
sVhttp://en.wikipedia.org/wiki/Atlas_(topology)
p73
S'Atlas (topology) - Wikipedia, the free encyclopedia'
p74
sVhttp://en.wikipedia.org/wiki/Dimension_(mathematics_and_physics)
p75
S'Dimension (mathematics and physics) - Wikipedia, the free encyclopedia'
p76
sVhttp://en.wikipedia.org/wiki/Differential_topology
p77
S'Differential topology - Wikipedia, the free encyclopedia'
p78
sVhttp://www.jstor.org/stable/1970624
p79
S'JSTOR: An Error Occurred Setting Your User Cookie'
p80
sVhttp://en.wikipedia.org/wiki/Stiefel_manifold#Topology
p81
S'Stiefel manifold - Wikipedia, the free encyclopedia'
p82
sVhttp://en.wikipedia.org/wiki/Euclidean_space
p83
S'Euclidean space - Wikipedia, the free encyclopedia'
p84
s.