(lp0
Vhttp://www.wormclassroom.org/teaching-model-organisms
p1
aVhttp://en.wikipedia.org/wiki/Organism#Semantics
p2
aVhttp://en.wikipedia.org/wiki/Essential_fatty_acid#Nomenclature_and_terminology
p3
aVhttp://evolution.berkeley.edu/evosite/evo101/VA1BioSpeciesConcept.shtml
p4
aVhttps://www.ibp.ucla.edu/
p5
aVhttp://www.britannica.com/EBchecked/topic/5263/adaptation
p6
aVhttp://www.nature.com/stemcells/2009/0906/090625/full/stemcells.2009.90.html
p7
aVhttp://www.nigms.nih.gov/Education/modelorg_factsheet.htm
p8
aVhttps://en.wikipedia.org/wiki/Cell_biology#Internal_cellular_structures
p9
aVhttp://en.wikipedia.org/wiki/Organism#Etymology
p10
aVhttp://en.wikipedia.org/wiki/Essential_fatty_acid
p11
aVhttp://bscd.uchicago.edu/ribs
p12
aVhttp://www.biology-online.org/dictionary/Physiology
p13
aVhttp://en.wikipedia.org/wiki/Superspecies
p14
aVhttp://en.wikipedia.org/wiki/Category:Biological_nomenclature
p15
aVhttp://en.wikipedia.org/wiki/Cell_(biology)#Anatomy
p16
aVhttps://en.wikipedia.org/wiki/Cell_biology#Processes
p17
aVhttp://en.wikipedia.org/wiki/Human_physiology
p18
aVhttp://en.wikipedia.org/wiki/Cell_(biology)
p19
aVhttp://www.cell-research.com/
p20
aVhttp://en.wikipedia.org/wiki/Endangered_species
p21
aVhttp://en.wikipedia.org/wiki/Organism
p22
aVhttp://en.wikipedia.org/wiki/Essential_fatty_acid#Functions
p23
aVhttp://en.wikipedia.org/wiki/Evolutionary_physiology#History
p24
aVhttp://en.wikipedia.org/wiki/Human_biology
p25
aVhttp://www.talkorigins.org/faqs/faq-intro-to-biology.html
p26
aVhttp://www.pbs.org/wgbh/evolution/library/faq/cat01.html
p27
aVhttp://en.wikipedia.org/wiki/Binomial_nomenclature
p28
aVhttp://en.wikipedia.org/wiki/Evolutionary_biology
p29
aVhttp://en.wikipedia.org/wiki/Biological_classification
p30
aVhttp://thedragonflywoman.com/scientific-names/scientific-nomenclature/
p31
aVhttp://biology.sfsu.edu/content/bachelor-science-biology-concentration-physiology
p32
aVhttp://en.wikipedia.org/wiki/Binomial_nomenclature#History
p33
aVhttp://en.wikipedia.org/wiki/Evolutionary_biology#History
p34
aVhttp://www.ebi.ac.uk/2can/biology/organisms2.html
p35
aVhttp://en.wikipedia.org/wiki/Cell_(biology)#Subcellular_components
p36
aVhttp://www.thefreedictionary.com/physiology
p37
aVhttp://www.ibp.ucla.edu/undergraduate.php
p38
aVhttp://en.wikipedia.org/wiki/Biology
p39
aVhttp://www.plantsci.cam.ac.uk/teaching/poo/
p40
aVhttp://www.thefreedictionary.com/Biological+nomenclature
p41
aVhttp://en.wikipedia.org/wiki/Nomenclature
p42
aVhttp://ec.asm.org/site/misc/journal-ita_nom.xhtml
p43
aVhttp://www.biology-online.org/dictionary/Species
p44
aVhttp://www.cellbiology.wustl.edu/
p45
aVhttp://biology.about.com/od/evolution/a/aa110207a.htm
p46
aVhttps://en.wikipedia.org/wiki/Cell_biology
p47
aVhttp://biomed.osu.edu/physiology/
p48
aVhttps://en.wikipedia.org/wiki/Evolution_of_biological_complexity
p49
aVhttp://esciencenews.com/articles/2013/05/03/george.washington.university.biologist.discovers.new.dinosaur.china
p50
aVhttp://en.wikipedia.org/wiki/Evolution
p51
aVhttp://biology.about.com/od/evolution/a/aa092304a.htm
p52
aVhttp://en.wikipedia.org/wiki/Evolutionary_physiology
p53
aVhttp://www.bio200.buffalo.edu/labs/nomenclature.html
p54
aVhttp://rgd.mcw.edu/wg/home/the-introduction-to-biomedical-nomenclature-video-series/the-introduction-to-biomedical-nomenclature-video-series
p55
aVhttp://www.plosbiology.org/static/guidelines.action
p56
aVhttps://www.ibp.ucla.edu/faculty.php
p57
aVhttp://www.bbsrc.ac.uk/
p58
aVhttps://en.wikipedia.org/wiki/Physiology
p59
aVhttp://www.evolutionarycellbiology.org/
p60
aVhttp://www.cell-research.com/contents/contents.htm
p61
aVhttp://en.wikipedia.org/wiki/Species
p62
aVhttp://animal.ifas.ufl.edu/programs/molephys/
p63
aVhttp://www.cell-research.com/authorinfo.htm
p64
aVhttp://www.biology-online.org/dictionary/Organism
p65
aVhttp://onlinelibrary.wiley.com/journal/10.1111/(ISSN)1420-9101
p66
aVhttp://www.csb.utoronto.ca/undergraduate/programs/animal-physiology
p67
aVhttp://www.crainscleveland.com/article/20130502/FREE/130509933
p68
aVhttp://vertebrates.si.edu/herps/herps_pdfs/deQueiroz_pdfs/1994deQ_GauTREE.pdf
p69
aVhttp://www.pensoft.net/journals/zookeys/article/3347/
p70
aVhttp://en.wikipedia.org/wiki/Binomial_nomenclature#Value
p71
aVhttp://www.nsf.gov/news/overviews/biology/
p72
aVhttp://en.wikipedia.org/wiki/Model_organism
p73
aVhttp://en.wikipedia.org/wiki/Digital_organism
p74
aVhttp://www.nature.com/uidfinder/10.1038/ncb2539?referral=true
p75
aVhttp://en.wikipedia.org/wiki/Evolutionary_biology#Subfields
p76
aVhttp://www.environment.gov.au/erin/documentation/pubs/nomenclature.pdf
p77
aVhttp://bioinformatics.oxfordjournals.org/content/24/23/2760.full
p78
aVhttp://en.wikipedia.org/wiki/Evolutionary_physiology#Emergent_Properties_of_Evolutionary_Physiology
p79
aVhttp://bio.slu.edu/mayden/systematics/bsc420520lect2.html
p80
aVhttp://imprs.evolbio.mpg.de/
p81
aVhttp://www.sciencedaily.com/news/plants_animals/evolution/
p82
aVhttp://en.wikipedia.org/wiki/Evolution_of_cells
p83
aVhttp://www.med.unc.edu/cellbio
p84
aVhttp://www.scienceworldreport.com/articles/6632/20130503/synthetic-biology-research-growing-strongly-map-shows-global-hotspots-activity.htm
p85
aVhttp://en.wikipedia.org/wiki/Plant_physiology
p86
a.