(lp0
Vhttp://sports.yahoo.com/news/cleveland-cavaliers-fire-coach-byron-154509130--nba.html
p1
aVhttp://en.wikipedia.org/wiki/Cleveland_Cavaliers
p2
aVhttp://newyork.cbslocal.com/2013/05/05/lebron-james-earns-nba-mvp-anthony-collects-one-first-place-vote/
p3
aVhttp://bleacherreport.com/articles/1612935-phil-jackson-would-give-cavs-enough-ammo-to-lure-lebron-james-back-to-cleveland
p4
aVhttp://www.nytimes.com/2013/05/05/sports/basketball/On-Defense-James-Is-Shining-Brightly.html
p5
aVhttp://www.usatoday.com/story/sports/nba/heat/2013/05/05/lebron-james-mvp-fourth-miami/2136715/
p6
aVhttp://www.cleveland.com/lebron/
p7
aVhttp://www.torontosun.com/2013/05/05/lebron-james-named-nba-most-valuable-player
p8
aVhttp://www.stableytimes.com/news/dan-gilberts-hex-lebron-james-loses-one-mvp-vote-to-carmelo-anthony/
p9
aVhttp://www.cbsnews.com/8301-201_162-57582943/lebron-james-wins-4th-nba-mvp-award/
p10
aVhttp://www.reuters.com/article/2013/05/05/us-nba-mvp-idUSBRE9440BA20130505
p11
aVhttp://espn.go.com/nba/playoffs/2013/story/_/id/9244504/lebron-james-miami-heat-1-vote-shy-unanimous-mvp-honor
p12
aVhttp://en.wikipedia.org/wiki/LeBron_James#Early_life
p13
aVhttp://msn.foxsports.com/nba/player/lebron-james/careerstats/139949
p14
aVhttp://news.yahoo.com/lebron-james-named-nba-most-valuable-player-191326832.html
p15
aVhttp://www.nydailynews.com/sports/basketball/knicks/vote-melo-denies-lebron-unanimous-mvp-article-1.1335628
p16
aVhttp://bleacherreport.com/articles/1627489-carmelo-anthonys-immaturity-proves-hell-never-be-on-lebron-james-level
p17
aVhttp://en.wikipedia.org/wiki/LeBron_James#NBA_career
p18
aVhttp://bleacherreport.com/articles/1623136-does-mike-browns-return-to-cleveland-cavaliers-mean-lebron-pipe-dream-is-over
p19
aVhttp://en.wikipedia.org/wiki/2012_NBA_Finals
p20
aVhttp://msn.foxsports.com/nba/player/lebron-james/139949
p21
aVhttp://www.biography.com/people/lebron-james-399748
p22
aVhttp://www.usatoday.com/story/sports/nba/2013/04/15/miami-heat-cleveland-cavaliers-lebron-james/2086497/
p23
aVhttp://www.youtube.com/watch?v=Sk480OaHJuE
p24
aVhttp://msn.foxsports.com/nba/story/LeBron-James-wins-4th-MVP-award-050513
p25
aVhttp://en.wikipedia.org/wiki/More_Than_a_Game
p26
aVhttp://www.sun-sentinel.com/sports/miami-heat/sfl-ira-nba-column-s050513,0,754387.column
p27
aVhttp://en.wikipedia.org/wiki/List_of_Cleveland_Cavaliers_seasons
p28
aVhttp://sports.yahoo.com/blogs/nba-ball-dont-lie/lebron-james-nba-mvp-not-unanimously-carmelo-anthony-194335300.html
p29
aVhttp://en.wikipedia.org/wiki/The_Decision_(TV_special)
p30
aVhttp://www.newsobserver.com/2013/05/05/2872790/james-wins-mvp-1-vote-shy-of-unanimously.html
p31
aVhttp://www.cleveland.com/sports/index.ssf/2013/05/lebron_james_wins_4th_nba_mvp.html
p32
aVhttp://www.cleveland.com/sports/index.ssf/2013/05/nbas_lebron_james_of_miami_hea.html
p33
aVhttp://en.wikipedia.org/wiki/LeBron_James
p34
aVhttp://www.nba.com/playerfile/lebron_james/
p35
a.