(lp0
Vhttp://www.thecrimson.com/article/2013/5/3/eight-college-soros-fellows/
p1
aVhttp://en.wikipedia.org/wiki/Yale_University#Administration_and_organization
p2
aVhttp://alumni.harvard.edu/help
p3
aVhttp://www.hks.harvard.edu/
p4
aVhttps://en.wikipedia.org/wiki/Harvard%E2%80%93Yale_sister_colleges
p5
aVhttp://www.insiderpages.com/b/7353455094/harvard-university-cambridge-9
p6
aVhttp://news.harvard.edu/gazette/story/2013/05/how-to-protect-cyclists/
p7
aVhttp://en.wikipedia.org/wiki/Harvard_Beats_Yale_29-29
p8
aVhttp://lib.harvard.edu/university-archives/managing-university-records/offsite-records-storage/storing-requesting-retrieving
p9
aVhttp://www.rowingrelated.com/2013/04/video-of-week-yale-women-edge-harvard.html
p10
aVhttp://www.judysbook.com/members/15205/posts/2005/8/116475/
p11
aVhttp://www.admissions.college.harvard.edu/
p12
aVhttp://en.wikipedia.org/wiki/Harvard%E2%80%93Yale_football_rivalry
p13
aVhttp://www.admissions.college.harvard.edu/contact/
p14
aVhttp://en.wikipedia.org/wiki/Big_Three_(colleges)
p15
aVhttp://www.seas.harvard.edu/faculty-research/undergraduate-opportunities
p16
aVhttp://www.hks.harvard.edu/degrees/masters
p17
aVhttp://www.businessinsider.com/harvard-vs-yale-2013-4
p18
aVhttp://www.yalebulldogs.com/sports/w-track/2012-13/releases/20130415m78yz1
p19
aVhttp://www.thecrimson.com/article/2013/4/30/amnesty-policy-alcohol-students/
p20
aVhttp://www.valuewalk.com/2013/04/harvard-gets-50m-donation-to-develop-breakthrough-therapies/
p21
aVhttp://www.hcri.harvard.edu/
p22
aVhttp://www.rgj.com/article/20130505/COL0603/305050026/Siobhan-McAndrew-local-students-Harvard-material-
p23
aVhttp://www.boston.com/news/science/blogs/science-in-mind/2013/04/28/harvard-receive-million-speed-translation-research-into-therapies/dH6XlmPgNqPF5VD6fjh4eM/blog.html
p24
aVhttp://www.berkshireeagle.com/news/ci_23174943/williams-college-students-push-divestment-coal-companies
p25
aVhttp://www.fas.harvard.edu/~sica/accommodations.htm
p26
aVhttp://www.seo.harvard.edu/
p27
aVhttp://undergrad-research.harvard.edu/
p28
aVhttp://undergrad-research.harvard.edu/icb/icb.do?keyword=k71606&pageid=icb.page350710
p29
aVhttp://en.wikipedia.org/wiki/Harvard%E2%80%93Yale_football_rivalry#Series_history
p30
aVhttp://en.wikipedia.org/wiki/History_of_Harvard_University
p31
aVhttp://hms.harvard.edu/research
p32
aVhttp://www.facebook.com/pages/Harvard-College-Yale/108070372560827
p33
aVhttp://www.fas.harvard.edu/~sica/faculty.htm
p34
aVhttp://www.hks.harvard.edu/degrees/admissions
p35
aVhttp://www.gsas.harvard.edu/
p36
aVhttp://www.harvard.edu/student-life
p37
aVhttp://alumni.harvard.edu/help/email-forwarding
p38
aVhttp://en.wikipedia.org/wiki/2012_Harvard_cheating_scandal
p39
aVhttp://www.hks.harvard.edu/research-publications
p40
aVhttp://www.fas.harvard.edu/home/content/centers-institutes-societies
p41
aVhttps://admapp.admissions.fas.harvard.edu/hanevo/alumni/haServices.do
p42
aVhttp://college.harvard.edu/
p43
aVhttp://isites.harvard.edu/icb/icb.do?keyword=k70847&pageid=icb.page363227
p44
aVhttp://en.wikipedia.org/wiki/Harvard_Square
p45
aVhttp://www.gse.harvard.edu/library/services/research_instruction/apa_gutman_examples.pdf
p46
aVhttp://en.wikipedia.org/wiki/Yale_University
p47
aVhttp://www.gocrimson.com/
p48
aVhttp://news.yale.edu/2013/03/06/yale-researchers-identify-salt-trigger-autoimmune-diseases
p49
aVhttp://www.harvard.edu/students
p50
aVhttp://yaledailynews.com/blog/2013/03/29/harvard-professor-talks-money-and-happiness/
p51
aVhttp://en.wikipedia.org/wiki/1968_Yale_vs._Harvard_football_game
p52
aVhttp://www.radcliffe.harvard.edu/fellowship-program/harvard-student-research-partnerships
p53
aVhttp://www.csmonitor.com/World/2010/0916/World-s-top-10-universities-Harvard-leads-again/Yale-University-New-Haven-Conn
p54
aVhttp://www.seo.harvard.edu/icb/icb.do?keyword=k80947&tabgroupid=icb.tabgroup131543
p55
aVhttp://www.harvard.edu/admissions-aid
p56
aVhttp://en.wikipedia.org/wiki/Harvard_Institute_for_International_Development
p57
aVhttp://en.wikipedia.org/wiki/Harvard_University
p58
aVhttp://en.wikipedia.org/wiki/Yale_University#History
p59
aVhttp://www.harvard.edu/research
p60
aVhttp://en.wikipedia.org/wiki/Harvard%E2%80%93Yale_football_rivalry#Significance
p61
aVhttp://www.harvard.edu/
p62
aVhttp://en.wikipedia.org/wiki/Harvard_Undergraduate_Television
p63
aVhttp://en.wikipedia.org/wiki/Harvard_College
p64
aVhttp://www.fas.harvard.edu/~sica/
p65
aVhttp://www.hsph.harvard.edu/research/
p66
aVhttp://www.admissions.college.harvard.edu/apply/
p67
aVhttp://en.wikipedia.org/wiki/List_of_Harvard_University_people
p68
aVhttp://www.admissions.college.harvard.edu/apply/vus/
p69
aVhttp://www.universityherald.com/articles/2768/20130202/harvard-punishes-students-caught-cheating-scandal-university.htm
p70
aVhttp://gruntledcenter.blogspot.com/2006/05/harvard-yale-study-at-20-still-missing.html
p71
a.