(lp0
Vhttp://en.wikipedia.org/wiki/Socialist_International
p1
aVhttp://en.wikipedia.org/wiki/World_communism
p2
aVhttp://en.wikipedia.org/wiki/Socialism_(Marxism)
p3
aVhttp://en.wikipedia.org/wiki/Communist_revolution
p4
aVhttp://en.wikipedia.org/wiki/Communist_Party_of_the_Soviet_Union
p5
aVhttp://en.wikipedia.org/wiki/Revolutionary_socialism
p6
aVhttp://en.wikipedia.org/wiki/Socialist_economics#Description
p7
aVhttp://en.wikipedia.org/wiki/Marxism
p8
aVhttp://en.wikipedia.org/wiki/Socialist_economics
p9
aVhttp://en.wikipedia.org/wiki/German_Revolution_of_1918%E2%80%9319
p10
aVhttp://www.montrealgazette.com/news/world/Chiles+Bachelet+courts+Communist+Party+social+movements/8340108/story.html
p11
aVhttp://en.wikipedia.org/wiki/Category:Former_communist_economies
p12
aVhttps://en.wikipedia.org/wiki/Comintern
p13
aVhttp://en.wikipedia.org/wiki/Socialism
p14
aVhttp://history.state.gov/milestones/1945-1952/ChineseRev
p15
aVhttp://libcom.org/history/russian-revolution-retreat-1920-24-soviet-workers-new-communist-elite-simon-pirani
p16
aVhttp://en.wikipedia.org/wiki/Economy_of_the_Soviet_Union
p17
aVhttp://www.therepublic.com/view/story/94138d83c27e47dcbfcfb925aa0c3c0a/NY--Politicians-Corruption
p18
aVhttp://answers.yahoo.com/question/index?qid=20090415111055AAkieY4
p19
aVhttp://www.diffen.com/difference/Communism_vs_Socialism#Economic_differences_between_socialists_and_communists
p20
aVhttp://abcnews.go.com/International/wireStory/chiles-bachelet-courts-communists-big-reforms-19113167
p21
aVhttp://www.economist.com/node/1489165
p22
aVhttp://en.wikipedia.org/wiki/Socialist_economics#Socialist_economies_in_practice
p23
aVhttp://en.wikipedia.org/wiki/Hungarian_Socialist_Workers'_Party
p24
aVhttp://en.wikipedia.org/wiki/International_Workers'_Day
p25
aVhttp://en.wikipedia.org/wiki/List_of_members_of_the_Presidium_of_the_Communist_Party_of_the_Soviet_Union_in_the_1950s
p26
aVhttps://en.wikipedia.org/wiki/Comintern#Comintern_and_Communist_Party_of_China
p27
aVhttp://en.wikipedia.org/wiki/Proletarian_internationalism
p28
aVhttp://socialistworker.org/2008/03/21/the-communist-manifesto
p29
aVhttp://en.wikipedia.org/wiki/Soviet_Revolutionary_Communists_(Bolsheviks)
p30
aVhttp://en.wikipedia.org/wiki/Communist_Workers'_International
p31
aVhttp://www.discoverthenetworks.org/guideDesc.asp?catid=115&type=issue
p32
aVhttp://en.wikipedia.org/wiki/International_Workingmen's_Association
p33
aVhttp://en.wikipedia.org/wiki/Economy_of_the_Soviet_Union#Planning
p34
aVhttp://en.wikipedia.org/wiki/Labour_and_Socialist_International
p35
aVhttp://en.wikipedia.org/wiki/Communist_Workers'_Party_(United_States)
p36
aVhttp://econfaculty.gmu.edu/bcaplan/museum/his1g.htm
p37
aVhttp://en.wikipedia.org/wiki/History_of_communism
p38
aVhttp://niagara-gazette.com/local/x326074846/Socialists-and-communists-gave-Albany-party-bosses-their-power
p39
aVhttp://en.wikipedia.org/wiki/World_revolution
p40
aVhttp://www.econlib.org/library/Enc/Communism.html
p41
aVhttp://www.romm.org/soc_com.html
p42
aVhttp://people.howstuffworks.com/communism1.htm
p43
aVhttp://en.wikipedia.org/wiki/Communist_Workers'_Party_%E2%80%93_For_Peace_and_Socialism
p44
aVhttp://commieblaster.com/george-soros-fund/
p45
aVhttp://en.wikipedia.org/wiki/Communist_Workers_Organisation_(UK)
p46
aVhttp://www.historylearningsite.co.uk/war_communism.htm
p47
aVhttp://en.wikipedia.org/wiki/The_Communist_Manifesto
p48
aVhttp://www.diffen.com/difference/Communism_vs_Socialism#Political_differences
p49
aVhttp://www-cs-faculty.stanford.edu/~eroberts/cs181/projects/communism-computing-china/workethic.html
p50
aVhttp://icwpredflag.org/
p51
aVhttp://news.yahoo.com/chiles-bachelet-courts-communists-big-reforms-172618001.html
p52
aVhttp://en.wikipedia.org/wiki/Left_communism
p53
aVhttp://en.wikipedia.org/wiki/Socialist_Workers_Party_(United_States)
p54
aVhttp://www.marxists.org/archive/kollonta/1921/peasant.htm
p55
aVhttp://www.law.cornell.edu/uscode/text/8/1424
p56
aVhttp://www.econlib.org/library/Enc/bios/Marx.html
p57
aVhttp://en.wikipedia.org/wiki/Council_communism
p58
aVhttps://en.wikipedia.org/wiki/Communist_state
p59
aVhttp://en.wikipedia.org/wiki/Russian_Revolution
p60
aVhttp://www.sfgate.com/news/article/1947-law-new-focus-of-anti-corruption-debate-in-NY-4488473.php
p61
aVhttp://answers.yahoo.com/question/index?qid=20110126133624AA3yQbU
p62
aVhttp://www.diffen.com/difference/Communism_vs_Socialism
p63
aVhttp://asianhistory.about.com/od/governmentandlaw/f/Difference-Between-Communism-And-Socialism.htm
p64
aVhttps://en.wikipedia.org/wiki/Comintern#Organizational_history
p65
aVhttp://www.forbes.com/sites/realspin/2013/04/30/on-may-day-communism-is-a-much-closeted-joke/
p66
aVhttp://en.wikipedia.org/wiki/Soviet_Union
p67
aVhttp://en.wikipedia.org/wiki/State_ideology_of_the_Soviet_Union
p68
aVhttp://en.wikipedia.org/wiki/General_Secretary_of_the_Communist_Party_of_the_Soviet_Union
p69
aVhttps://en.wikipedia.org/wiki/Communism
p70
aVhttp://en.wikipedia.org/wiki/Economy_of_the_Soviet_Union#Agriculture
p71
a.