(lp0
Vhttp://en.wikipedia.org/wiki/Organism
p1
aVhttp://en.wikipedia.org/wiki/Organism#Etymology
p2
aVhttp://en.wikipedia.org/wiki/Organism#Semantics
p3
aVhttp://en.wikipedia.org/wiki/Biology
p4
aVhttp://biology.sfsu.edu/content/bachelor-science-biology-concentration-physiology
p5
aVhttp://www.biology-online.org/dictionary/Physiology
p6
aVhttp://en.wikipedia.org/wiki/Cell_(biology)
p7
aVhttp://en.wikipedia.org/wiki/Cell_(biology)#Anatomy
p8
aVhttp://en.wikipedia.org/wiki/Cell_(biology)#Subcellular_components
p9
aVhttps://en.wikipedia.org/wiki/Cell_biology
p10
aVhttp://en.wikipedia.org/wiki/Human_biology
p11
aVhttp://en.wikipedia.org/wiki/Evolutionary_biology
p12
aVhttp://en.wikipedia.org/wiki/Evolutionary_biology#Subfields
p13
aVhttp://en.wikipedia.org/wiki/Evolutionary_biology#History
p14
aVhttp://en.wikipedia.org/wiki/Category:Biological_nomenclature
p15
aVhttp://bio.slu.edu/mayden/systematics/bsc420520lect2.html
p16
aVhttp://www.thefreedictionary.com/Biological+nomenclature
p17
aVhttp://www.nsf.gov/news/overviews/biology/
p18
aVhttp://www.scienceworldreport.com/articles/6632/20130503/synthetic-biology-research-growing-strongly-map-shows-global-hotspots-activity.htm
p19
aVhttp://www.crainscleveland.com/article/20130502/FREE/130509933
p20
aVhttp://www.biology-online.org/dictionary/Species
p21
aVhttp://esciencenews.com/articles/2013/05/03/george.washington.university.biologist.discovers.new.dinosaur.china
p22
aVhttp://en.wikipedia.org/wiki/Species
p23
aVhttp://biology.about.com/od/evolution/a/aa110207a.htm
p24
aVhttp://www.talkorigins.org/faqs/faq-intro-to-biology.html
p25
aVhttp://www.plantsci.cam.ac.uk/teaching/poo/
p26
aVhttp://www.thefreedictionary.com/physiology
p27
aVhttps://en.wikipedia.org/wiki/Physiology
p28
aVhttp://www.biology-online.org/dictionary/Organism
p29
aVhttp://www.wormclassroom.org/teaching-model-organisms
p30
aVhttps://en.wikipedia.org/wiki/Evolution_of_biological_complexity
p31
aVhttp://www.pbs.org/wgbh/evolution/library/faq/cat01.html
p32
aVhttp://thedragonflywoman.com/scientific-names/scientific-nomenclature/
p33
aVhttp://en.wikipedia.org/wiki/Biological_classification
p34
aVhttp://www.pensoft.net/journals/zookeys/article/3347/
p35
aVhttp://en.wikipedia.org/wiki/Model_organism
p36
aVhttp://www.nigms.nih.gov/Education/modelorg_factsheet.htm
p37
aVhttp://www.ebi.ac.uk/2can/biology/organisms2.html
p38
aVhttp://en.wikipedia.org/wiki/Digital_organism
p39
aVhttp://www.med.unc.edu/cellbio
p40
aVhttp://biomed.osu.edu/physiology/
p41
aVhttp://www.cellbiology.wustl.edu/
p42
aVhttp://en.wikipedia.org/wiki/Human_physiology
p43
aVhttp://en.wikipedia.org/wiki/Plant_physiology
p44
aVhttp://en.wikipedia.org/wiki/Evolutionary_physiology
p45
aVhttp://en.wikipedia.org/wiki/Evolutionary_physiology#History
p46
aVhttp://en.wikipedia.org/wiki/Evolutionary_physiology#Emergent_Properties_of_Evolutionary_Physiology
p47
aVhttp://en.wikipedia.org/wiki/Essential_fatty_acid
p48
aVhttp://en.wikipedia.org/wiki/Essential_fatty_acid#Functions
p49
aVhttp://en.wikipedia.org/wiki/Essential_fatty_acid#Nomenclature_and_terminology
p50
aVhttps://www.ibp.ucla.edu/
p51
aVhttp://www.ibp.ucla.edu/undergraduate.php
p52
aVhttps://www.ibp.ucla.edu/faculty.php
p53
aVhttp://www.britannica.com/EBchecked/topic/5263/adaptation
p54
aVhttp://www.csb.utoronto.ca/undergraduate/programs/animal-physiology
p55
aVhttp://animal.ifas.ufl.edu/programs/molephys/
p56
aVhttps://en.wikipedia.org/wiki/Cell_biology#Processes
p57
aVhttps://en.wikipedia.org/wiki/Cell_biology#Internal_cellular_structures
p58
aVhttp://www.evolutionarycellbiology.org/
p59
aVhttp://www.nature.com/uidfinder/10.1038/ncb2539?referral=true
p60
aVhttp://en.wikipedia.org/wiki/Evolution_of_cells
p61
aVhttp://www.nature.com/stemcells/2009/0906/090625/full/stemcells.2009.90.html
p62
aVhttp://bioinformatics.oxfordjournals.org/content/24/23/2760.full
p63
aVhttp://ec.asm.org/site/misc/journal-ita_nom.xhtml
p64
aVhttp://www.cell-research.com/
p65
aVhttp://www.cell-research.com/authorinfo.htm
p66
aVhttp://www.cell-research.com/contents/contents.htm
p67
aVhttp://en.wikipedia.org/wiki/Nomenclature
p68
aVhttp://www.environment.gov.au/erin/documentation/pubs/nomenclature.pdf
p69
aVhttp://bscd.uchicago.edu/ribs
p70
aVhttp://www.bbsrc.ac.uk/
p71
aVhttp://www.bio200.buffalo.edu/labs/nomenclature.html
p72
aVhttp://biology.about.com/od/evolution/a/aa092304a.htm
p73
aVhttp://www.sciencedaily.com/news/plants_animals/evolution/
p74
aVhttp://onlinelibrary.wiley.com/journal/10.1111/(ISSN)1420-9101
p75
aVhttp://evolution.berkeley.edu/evosite/evo101/VA1BioSpeciesConcept.shtml
p76
aVhttp://en.wikipedia.org/wiki/Evolution
p77
aVhttp://www.plosbiology.org/static/guidelines.action
p78
aVhttp://rgd.mcw.edu/wg/home/the-introduction-to-biomedical-nomenclature-video-series/the-introduction-to-biomedical-nomenclature-video-series
p79
aVhttp://en.wikipedia.org/wiki/Binomial_nomenclature
p80
aVhttp://en.wikipedia.org/wiki/Binomial_nomenclature#History
p81
aVhttp://en.wikipedia.org/wiki/Binomial_nomenclature#Value
p82
aVhttp://vertebrates.si.edu/herps/herps_pdfs/deQueiroz_pdfs/1994deQ_GauTREE.pdf
p83
aVhttp://en.wikipedia.org/wiki/Endangered_species
p84
aVhttp://en.wikipedia.org/wiki/Superspecies
p85
aVhttp://imprs.evolbio.mpg.de/
p86
a.