(lp0
Vhttp://en.wikipedia.org/wiki/Atlas_(topology)#Charts
p1
aVhttp://math.stackexchange.com/questions/93928/is-0-1-an-oriented-manifold-with-boundary-and-stokes-theorem
p2
aVhttp://www.map.mpim-bonn.mpg.de/Manifold_Atlas:Bibliography
p3
aVhttp://www.springer.com/cda/content/document/cda_downloaddocument/9781441973993-c1.pdf?SGWID=0-0-45-998650-p174028999
p4
aVhttp://www-stat.stanford.edu/~donoho/Reports/2002/WhenIsometry.pdf
p5
aVhttp://www.math.washington.edu/~lee/Books/Smooth/c01.pdf
p6
aVhttp://en.wikipedia.org/wiki/Differential_structure
p7
aVhttp://en.wikipedia.org/wiki/Differential_topology#Differential_topology_versus_differential_geometry
p8
aVhttp://en.wikipedia.org/wiki/Differential_topology#Description
p9
aVhttp://en.wikipedia.org/wiki/Differentiable_manifold
p10
aVhttp://en.wikipedia.org/wiki/Manifold
p11
aVhttp://en.wikipedia.org/wiki/Manifold_(disambiguation)
p12
aVhttp://link.springer.com/article/10.1007%2FBF01389196
p13
aVhttp://en.wikipedia.org/wiki/Riemannian_manifold
p14
aVhttp://en.wikipedia.org/wiki/Atlas_(topology)#Formal_definition_of_atlas
p15
aVhttp://www.jstor.org/stable/1969770
p16
aVhttp://en.wiktionary.org/wiki/manifold
p17
aVhttp://en.wikipedia.org/wiki/Differentiable_manifold#History
p18
aVhttp://en.wikipedia.org/wiki/Topological_manifold
p19
aVhttp://www.map.mpim-bonn.mpg.de/Manifold_Atlas:Create_a_new_restricted-editing_page
p20
aVhttp://en.wikipedia.org/wiki/Topological_manifold#Formal_definition
p21
aVhttp://en.wikipedia.org/wiki/Stiefel_manifold
p22
aVhttp://wolfweb.unr.edu/homepage/jabuka/Classes/2006_spring/topology/Notes/09%20-%20Manifolds%20with%20boundary.pdf
p23
aVhttp://books.nips.cc/papers/files/nips15/AA61.pdf
p24
aVhttp://www.thefreedictionary.com/manifold
p25
aVhttp://en.wikipedia.org/wiki/Stiefel_manifold#As_a_homogeneous_space
p26
aVhttp://preposterousuniverse.com/grnotes/grnotes-two.pdf
p27
aVhttp://www.math.nus.edu.sg/~matwujie/Spring04/lecturenotes.pdf
p28
aVhttp://mathworld.wolfram.com/Manifold.html
p29
aVhttp://www.map.mpim-bonn.mpg.de/
p30
aVhttp://en.wikipedia.org/wiki/Topological_manifold#Examples
p31
aVhttp://en.wikipedia.org/wiki/Differentiable_manifold#Definition
p32
aVhttp://en.wikipedia.org/wiki/Closed_manifold
p33
aVhttp://arxiv.org/abs/1302.5940
p34
aVhttp://www.map.mpim-bonn.mpg.de/Manifold_Atlas:Create_a_new_open-editing_page
p35
aVhttp://www.map.mpim-bonn.mpg.de/Orientation_of_manifolds
p36
aVhttp://en.wikipedia.org/wiki/Nash_functions
p37
aVhttp://math.uchicago.edu/~wilsonj/WOMPtalk-Manifolds.pdf
p38
aVhttp://www.jstor.org/stable/1970318
p39
aVhttp://hal.archives-ouvertes.fr/docs/00/47/38/92/PDF/morse4.pdf
p40
aVhttp://www.map.mpim-bonn.mpg.de/1-manifolds
p41
aVhttp://en.wikipedia.org/wiki/Atlas_(topology)
p42
aVhttp://en.wikipedia.org/wiki/Dimension_(mathematics_and_physics)
p43
aVhttp://en.wikipedia.org/wiki/Differential_topology
p44
aVhttp://www.jstor.org/stable/1970624
p45
aVhttp://en.wikipedia.org/wiki/Stiefel_manifold#Topology
p46
aVhttp://en.wikipedia.org/wiki/Euclidean_space
p47
a.