(lp0
Vhttp://en.wikipedia.org/wiki/Topological_manifold
p1
aVhttp://en.wikipedia.org/wiki/Euclidean_space
p2
aVhttp://en.wikipedia.org/wiki/Manifold
p3
aVhttp://en.wikipedia.org/wiki/Manifold
p4
aVhttp://en.wikipedia.org/wiki/Differentiable_manifold
p5
aVhttp://books.nips.cc/papers/files/nips15/AA61.pdf
p6
aVhttp://en.wikipedia.org/wiki/Manifold
p7
aVhttp://en.wikipedia.org/wiki/Manifold_(disambiguation)
p8
aVhttp://en.wikipedia.org/wiki/Topological_manifold
p9
aVhttp://www.map.mpim-bonn.mpg.de/
p10
aVhttp://www.map.mpim-bonn.mpg.de/1-manifolds
p11
aVhttp://www.map.mpim-bonn.mpg.de/Manifold_Atlas:Bibliography
p12
aVhttp://en.wikipedia.org/wiki/Stiefel_manifold
p13
aVhttp://en.wikipedia.org/wiki/Stiefel_manifold#Topology
p14
aVhttp://en.wikipedia.org/wiki/Stiefel_manifold#As_a_homogeneous_space
p15
aVhttp://en.wikipedia.org/wiki/Manifold
p16
aVhttp://en.wikipedia.org/wiki/Riemannian_manifold
p17
aVhttp://en.wiktionary.org/wiki/manifold
p18
aVhttp://en.wikipedia.org/wiki/Topological_manifold
p19
aVhttp://en.wikipedia.org/wiki/Topological_manifold#Formal_definition
p20
aVhttp://en.wikipedia.org/wiki/Topological_manifold#Examples
p21
aVhttp://en.wikipedia.org/wiki/Differentiable_manifold
p22
aVhttp://en.wikipedia.org/wiki/Manifold
p23
aVhttp://www.thefreedictionary.com/manifold
p24
aVhttp://en.wikipedia.org/wiki/Differentiable_manifold
p25
aVhttp://en.wikipedia.org/wiki/Differentiable_manifold#History
p26
aVhttp://en.wikipedia.org/wiki/Differentiable_manifold#Definition
p27
aVhttp://en.wikipedia.org/wiki/Manifold
p28
aVhttp://en.wikipedia.org/wiki/Topological_manifold
p29
aVhttp://mathworld.wolfram.com/Manifold.html
p30
aVhttp://en.wikipedia.org/wiki/Topological_manifold
p31
aVhttp://en.wikipedia.org/wiki/Manifold
p32
aVhttp://mathworld.wolfram.com/Manifold.html
p33
aVhttp://en.wikipedia.org/wiki/Manifold
p34
aVhttp://www.springer.com/cda/content/document/cda_downloaddocument/9781441973993-c1.pdf?SGWID=0-0-45-998650-p174028999
p35
aVhttp://en.wikipedia.org/wiki/Atlas_(topology)
p36
aVhttp://en.wikipedia.org/wiki/Manifold
p37
aVhttp://en.wikipedia.org/wiki/Topological_manifold
p38
aVhttp://en.wikipedia.org/wiki/Euclidean_space
p39
aVhttp://en.wikipedia.org/wiki/Topological_manifold
p40
aVhttp://en.wikipedia.org/wiki/Manifold
p41
aVhttp://en.wikipedia.org/wiki/Euclidean_space
p42
aVhttp://en.wikipedia.org/wiki/Topological_manifold
p43
aVhttp://en.wikipedia.org/wiki/Euclidean_space
p44
aVhttp://en.wikipedia.org/wiki/Manifold
p45
aVhttp://en.wikipedia.org/wiki/Manifold
p46
aVhttp://en.wikipedia.org/wiki/Topological_manifold
p47
aVhttp://www-stat.stanford.edu/~donoho/Reports/2002/WhenIsometry.pdf
p48
aVhttp://mathworld.wolfram.com/Manifold.html
p49
aVhttp://en.wikipedia.org/wiki/Manifold
p50
aVhttp://www.jstor.org/stable/1970318
p51
aVhttp://en.wikipedia.org/wiki/Manifold
p52
aVhttp://en.wikipedia.org/wiki/Topological_manifold
p53
aVhttp://math.stackexchange.com/questions/93928/is-0-1-an-oriented-manifold-with-boundary-and-stokes-theorem
p54
aVhttp://en.wikipedia.org/wiki/Atlas_(topology)
p55
aVhttp://en.wikipedia.org/wiki/Atlas_(topology)#Charts
p56
aVhttp://en.wikipedia.org/wiki/Atlas_(topology)#Formal_definition_of_atlas
p57
aVhttp://en.wikipedia.org/wiki/Manifold
p58
aVhttp://preposterousuniverse.com/grnotes/grnotes-two.pdf
p59
aVhttp://www.math.washington.edu/~lee/Books/Smooth/c01.pdf
p60
aVhttp://en.wikipedia.org/wiki/Manifold
p61
aVhttp://en.wikipedia.org/wiki/Differentiable_manifold
p62
aVhttp://en.wikipedia.org/wiki/Topological_manifold
p63
aVhttp://en.wikipedia.org/wiki/Manifold
p64
aVhttp://en.wikipedia.org/wiki/Manifold_(disambiguation)
p65
aVhttp://en.wikipedia.org/wiki/Topological_manifold
p66
aVhttp://en.wikipedia.org/wiki/Differentiable_manifold
p67
aVhttp://en.wikipedia.org/wiki/Differentiable_manifold#History
p68
aVhttp://en.wikipedia.org/wiki/Differentiable_manifold#Definition
p69
aVhttp://en.wikipedia.org/wiki/Differentiable_manifold
p70
aVhttp://en.wikipedia.org/wiki/Manifold
p71
aVhttp://mathworld.wolfram.com/Manifold.html
p72
aVhttp://math.uchicago.edu/~wilsonj/WOMPtalk-Manifolds.pdf
p73
aVhttp://en.wikipedia.org/wiki/Manifold
p74
aVhttp://www.map.mpim-bonn.mpg.de/Orientation_of_manifolds
p75
aVhttp://en.wikipedia.org/wiki/Manifold
p76
aVhttp://wolfweb.unr.edu/homepage/jabuka/Classes/2006_spring/topology/Notes/09%20-%20Manifolds%20with%20boundary.pdf
p77
aVhttp://en.wikipedia.org/wiki/Topological_manifold
p78
aVhttp://en.wikipedia.org/wiki/Manifold
p79
aVhttp://en.wikipedia.org/wiki/Topological_manifold
p80
aVhttp://en.wikipedia.org/wiki/Closed_manifold
p81
aVhttp://en.wikipedia.org/wiki/Topological_manifold
p82
aVhttp://en.wikipedia.org/wiki/Topological_manifold#Formal_definition
p83
aVhttp://en.wikipedia.org/wiki/Topological_manifold#Examples
p84
aVhttp://arxiv.org/abs/1302.5940
p85
aVhttp://hal.archives-ouvertes.fr/docs/00/47/38/92/PDF/morse4.pdf
p86
aVhttp://www.jstor.org/stable/1970624
p87
aVhttp://en.wikipedia.org/wiki/Manifold
p88
aVhttp://www.jstor.org/stable/1969770
p89
aVhttp://www.math.nus.edu.sg/~matwujie/Spring04/lecturenotes.pdf
p90
aVhttp://en.wikipedia.org/wiki/Manifold
p91
aVhttp://en.wikipedia.org/wiki/Differentiable_manifold
p92
aVhttp://www.map.mpim-bonn.mpg.de/1-manifolds
p93
aVhttp://www.map.mpim-bonn.mpg.de/
p94
aVhttp://www.map.mpim-bonn.mpg.de/Manifold_Atlas:Create_a_new_restricted-editing_page
p95
aVhttp://www.map.mpim-bonn.mpg.de/Manifold_Atlas:Create_a_new_open-editing_page
p96
aVhttp://en.wikipedia.org/wiki/Atlas_(topology)
p97
aVhttp://en.wikipedia.org/wiki/Differentiable_manifold
p98
aVhttp://en.wikipedia.org/wiki/Manifold
p99
aVhttp://en.wikipedia.org/wiki/Differentiable_manifold
p100
aVhttp://en.wikipedia.org/wiki/Atlas_(topology)
p101
aVhttp://en.wikipedia.org/wiki/Manifold
p102
aVhttp://en.wikipedia.org/wiki/Differentiable_manifold
p103
aVhttp://en.wikipedia.org/wiki/Differential_structure
p104
aVhttp://en.wikipedia.org/wiki/Manifold
p105
aVhttp://en.wikipedia.org/wiki/Manifold
p106
aVhttp://en.wikipedia.org/wiki/Dimension_(mathematics_and_physics)
p107
aVhttp://en.wikipedia.org/wiki/Topological_manifold
p108
aVhttp://en.wikipedia.org/wiki/Topological_manifold
p109
aVhttp://en.wikipedia.org/wiki/Topological_manifold#Formal_definition
p110
aVhttp://en.wikipedia.org/wiki/Topological_manifold#Examples
p111
aVhttp://en.wikipedia.org/wiki/Differentiable_manifold
p112
aVhttp://en.wikipedia.org/wiki/Manifold
p113
aVhttp://www.springer.com/cda/content/document/cda_downloaddocument/9781441973993-c1.pdf?SGWID=0-0-45-998650-p174028999
p114
aVhttp://en.wikipedia.org/wiki/Differentiable_manifold
p115
aVhttp://en.wikipedia.org/wiki/Manifold
p116
aVhttp://en.wikipedia.org/wiki/Differential_structure
p117
aVhttp://en.wikipedia.org/wiki/Topological_manifold
p118
aVhttp://en.wikipedia.org/wiki/Topological_manifold#Formal_definition
p119
aVhttp://en.wikipedia.org/wiki/Topological_manifold#Examples
p120
aVhttp://en.wikipedia.org/wiki/Nash_functions
p121
aVhttp://en.wikipedia.org/wiki/Manifold
p122
aVhttp://en.wikipedia.org/wiki/Differentiable_manifold
p123
aVhttp://en.wikipedia.org/wiki/Differentiable_manifold
p124
aVhttp://en.wikipedia.org/wiki/Manifold
p125
aVhttp://en.wikipedia.org/wiki/Differential_topology
p126
aVhttp://en.wikipedia.org/wiki/Topological_manifold
p127
aVhttp://link.springer.com/article/10.1007%2FBF01389196
p128
aVhttp://en.wikipedia.org/wiki/Manifold
p129
aVhttp://en.wikipedia.org/wiki/Differential_topology
p130
aVhttp://en.wikipedia.org/wiki/Differential_topology#Description
p131
aVhttp://en.wikipedia.org/wiki/Differential_topology#Differential_topology_versus_differential_geometry
p132
aVhttp://en.wikipedia.org/wiki/Differentiable_manifold
p133
aVhttp://en.wikipedia.org/wiki/Differentiable_manifold#History
p134
aVhttp://en.wikipedia.org/wiki/Differentiable_manifold#Definition
p135
a.